
_test_func:

;BinProto.c,28 :: 		char test_func(){
;BinProto.c,30 :: 		a = 91;
	MOVLW      91
	MOVWF      _a+0
;BinProto.c,31 :: 		a = 92;
	MOVLW      92
	MOVWF      _a+0
;BinProto.c,32 :: 		a = 93;
	MOVLW      93
	MOVWF      _a+0
;BinProto.c,33 :: 		a = 94;
	MOVLW      94
	MOVWF      _a+0
;BinProto.c,34 :: 		a = 95;
	MOVLW      95
	MOVWF      _a+0
;BinProto.c,35 :: 		a = 96;
	MOVLW      96
	MOVWF      _a+0
;BinProto.c,36 :: 		a = 97;
	MOVLW      97
	MOVWF      _a+0
;BinProto.c,37 :: 		a = 98;
	MOVLW      98
	MOVWF      _a+0
;BinProto.c,38 :: 		a = 99;
	MOVLW      99
	MOVWF      _a+0
;BinProto.c,39 :: 		a = 0;
	CLRF       _a+0
;BinProto.c,40 :: 		a = 1;
	MOVLW      1
	MOVWF      _a+0
;BinProto.c,41 :: 		a = 2;
	MOVLW      2
	MOVWF      _a+0
;BinProto.c,42 :: 		a = 3;
	MOVLW      3
	MOVWF      _a+0
;BinProto.c,43 :: 		a = 4;
	MOVLW      4
	MOVWF      _a+0
;BinProto.c,44 :: 		a = 5;
	MOVLW      5
	MOVWF      _a+0
;BinProto.c,45 :: 		a = 6;
	MOVLW      6
	MOVWF      _a+0
;BinProto.c,46 :: 		a = 7;
	MOVLW      7
	MOVWF      _a+0
;BinProto.c,47 :: 		a = 8;
	MOVLW      8
	MOVWF      _a+0
;BinProto.c,48 :: 		a = 9;
	MOVLW      9
	MOVWF      _a+0
;BinProto.c,49 :: 		a = 10;
	MOVLW      10
	MOVWF      _a+0
;BinProto.c,50 :: 		a = 11;
	MOVLW      11
	MOVWF      _a+0
;BinProto.c,51 :: 		a = 12;
	MOVLW      12
	MOVWF      _a+0
;BinProto.c,52 :: 		a = 13;
	MOVLW      13
	MOVWF      _a+0
;BinProto.c,53 :: 		a = 14;
	MOVLW      14
	MOVWF      _a+0
;BinProto.c,54 :: 		a = 15;
	MOVLW      15
	MOVWF      _a+0
;BinProto.c,55 :: 		a = 16;
	MOVLW      16
	MOVWF      _a+0
;BinProto.c,56 :: 		a = 17;
	MOVLW      17
	MOVWF      _a+0
;BinProto.c,57 :: 		a = 18;
	MOVLW      18
	MOVWF      _a+0
;BinProto.c,58 :: 		a = 19;
	MOVLW      19
	MOVWF      _a+0
;BinProto.c,59 :: 		a = 20;
	MOVLW      20
	MOVWF      _a+0
;BinProto.c,60 :: 		a = 21;
	MOVLW      21
	MOVWF      _a+0
;BinProto.c,61 :: 		a = 22;
	MOVLW      22
	MOVWF      _a+0
;BinProto.c,62 :: 		a = 23;
	MOVLW      23
	MOVWF      _a+0
;BinProto.c,63 :: 		a = 24;
	MOVLW      24
	MOVWF      _a+0
;BinProto.c,64 :: 		a = 25;
	MOVLW      25
	MOVWF      _a+0
;BinProto.c,65 :: 		a = 26;
	MOVLW      26
	MOVWF      _a+0
;BinProto.c,66 :: 		a = 27;
	MOVLW      27
	MOVWF      _a+0
;BinProto.c,67 :: 		a = 28;
	MOVLW      28
	MOVWF      _a+0
;BinProto.c,68 :: 		a = 29;
	MOVLW      29
	MOVWF      _a+0
;BinProto.c,69 :: 		a = 30;
	MOVLW      30
	MOVWF      _a+0
;BinProto.c,70 :: 		a = 31;
	MOVLW      31
	MOVWF      _a+0
;BinProto.c,71 :: 		a = 32;
	MOVLW      32
	MOVWF      _a+0
;BinProto.c,72 :: 		a = 33;
	MOVLW      33
	MOVWF      _a+0
;BinProto.c,73 :: 		a = 34;
	MOVLW      34
	MOVWF      _a+0
;BinProto.c,74 :: 		a = 35;
	MOVLW      35
	MOVWF      _a+0
;BinProto.c,75 :: 		a = 36;
	MOVLW      36
	MOVWF      _a+0
;BinProto.c,76 :: 		a = 37;
	MOVLW      37
	MOVWF      _a+0
;BinProto.c,77 :: 		a = 38;
	MOVLW      38
	MOVWF      _a+0
;BinProto.c,78 :: 		a = 39;
	MOVLW      39
	MOVWF      _a+0
;BinProto.c,79 :: 		a = 40;
	MOVLW      40
	MOVWF      _a+0
;BinProto.c,80 :: 		a = 41;
	MOVLW      41
	MOVWF      _a+0
;BinProto.c,81 :: 		a = 42;
	MOVLW      42
	MOVWF      _a+0
;BinProto.c,82 :: 		a = 43;
	MOVLW      43
	MOVWF      _a+0
;BinProto.c,83 :: 		a = 44;
	MOVLW      44
	MOVWF      _a+0
;BinProto.c,84 :: 		a = 45;
	MOVLW      45
	MOVWF      _a+0
;BinProto.c,85 :: 		a = 46;
	MOVLW      46
	MOVWF      _a+0
;BinProto.c,86 :: 		a = 47;
	MOVLW      47
	MOVWF      _a+0
;BinProto.c,87 :: 		a = 48;
	MOVLW      48
	MOVWF      _a+0
;BinProto.c,88 :: 		a = 49;
	MOVLW      49
	MOVWF      _a+0
;BinProto.c,89 :: 		a = 50;
	MOVLW      50
	MOVWF      _a+0
;BinProto.c,90 :: 		a = 51;
	MOVLW      51
	MOVWF      _a+0
;BinProto.c,91 :: 		a = 52;
	MOVLW      52
	MOVWF      _a+0
;BinProto.c,92 :: 		a = 53;
	MOVLW      53
	MOVWF      _a+0
;BinProto.c,93 :: 		a = 54;
	MOVLW      54
	MOVWF      _a+0
;BinProto.c,94 :: 		a = 55;
	MOVLW      55
	MOVWF      _a+0
;BinProto.c,95 :: 		a = 56;
	MOVLW      56
	MOVWF      _a+0
;BinProto.c,96 :: 		a = 57;
	MOVLW      57
	MOVWF      _a+0
;BinProto.c,97 :: 		a = 58;
	MOVLW      58
	MOVWF      _a+0
;BinProto.c,98 :: 		a = 59;
	MOVLW      59
	MOVWF      _a+0
;BinProto.c,99 :: 		a = 60;
	MOVLW      60
	MOVWF      _a+0
;BinProto.c,100 :: 		a = 61;
	MOVLW      61
	MOVWF      _a+0
;BinProto.c,101 :: 		a = 62;
	MOVLW      62
	MOVWF      _a+0
;BinProto.c,102 :: 		a = 63;
	MOVLW      63
	MOVWF      _a+0
;BinProto.c,103 :: 		a = 64;
	MOVLW      64
	MOVWF      _a+0
;BinProto.c,104 :: 		a = 65;
	MOVLW      65
	MOVWF      _a+0
;BinProto.c,105 :: 		a = 66;
	MOVLW      66
	MOVWF      _a+0
;BinProto.c,106 :: 		a = 67;
	MOVLW      67
	MOVWF      _a+0
;BinProto.c,107 :: 		a = 68;
	MOVLW      68
	MOVWF      _a+0
;BinProto.c,108 :: 		a = 69;
	MOVLW      69
	MOVWF      _a+0
;BinProto.c,109 :: 		a = 70;
	MOVLW      70
	MOVWF      _a+0
;BinProto.c,110 :: 		a = 71;
	MOVLW      71
	MOVWF      _a+0
;BinProto.c,111 :: 		a = 72;
	MOVLW      72
	MOVWF      _a+0
;BinProto.c,112 :: 		a = 73;
	MOVLW      73
	MOVWF      _a+0
;BinProto.c,113 :: 		a = 74;
	MOVLW      74
	MOVWF      _a+0
;BinProto.c,114 :: 		a = 75;
	MOVLW      75
	MOVWF      _a+0
;BinProto.c,115 :: 		a = 76;
	MOVLW      76
	MOVWF      _a+0
;BinProto.c,116 :: 		a = 77;
	MOVLW      77
	MOVWF      _a+0
;BinProto.c,117 :: 		a = 78;
	MOVLW      78
	MOVWF      _a+0
;BinProto.c,118 :: 		a = 79;
	MOVLW      79
	MOVWF      _a+0
;BinProto.c,119 :: 		a = 80;
	MOVLW      80
	MOVWF      _a+0
;BinProto.c,120 :: 		a = 81;
	MOVLW      81
	MOVWF      _a+0
;BinProto.c,121 :: 		a = 82;
	MOVLW      82
	MOVWF      _a+0
;BinProto.c,122 :: 		a = 83;
	MOVLW      83
	MOVWF      _a+0
;BinProto.c,123 :: 		a = 84;
	MOVLW      84
	MOVWF      _a+0
;BinProto.c,124 :: 		a = 85;
	MOVLW      85
	MOVWF      _a+0
;BinProto.c,125 :: 		a = 86;
	MOVLW      86
	MOVWF      _a+0
;BinProto.c,126 :: 		a = 87;
	MOVLW      87
	MOVWF      _a+0
;BinProto.c,127 :: 		a = 88;
	MOVLW      88
	MOVWF      _a+0
;BinProto.c,128 :: 		a = 89;
	MOVLW      89
	MOVWF      _a+0
;BinProto.c,129 :: 		a = 90;
	MOVLW      90
	MOVWF      _a+0
;BinProto.c,130 :: 		a = 91;
	MOVLW      91
	MOVWF      _a+0
;BinProto.c,131 :: 		a = 92;
	MOVLW      92
	MOVWF      _a+0
;BinProto.c,132 :: 		a = 93;
	MOVLW      93
	MOVWF      _a+0
;BinProto.c,133 :: 		a = 94;
	MOVLW      94
	MOVWF      _a+0
;BinProto.c,134 :: 		a = 95;
	MOVLW      95
	MOVWF      _a+0
;BinProto.c,135 :: 		a = 96;
	MOVLW      96
	MOVWF      _a+0
;BinProto.c,136 :: 		a = 97;
	MOVLW      97
	MOVWF      _a+0
;BinProto.c,137 :: 		a = 98;
	MOVLW      98
	MOVWF      _a+0
;BinProto.c,138 :: 		a = 99;a = 0;
	MOVLW      99
	MOVWF      _a+0
	CLRF       _a+0
;BinProto.c,139 :: 		a = 1;
	MOVLW      1
	MOVWF      _a+0
;BinProto.c,140 :: 		a = 2;
	MOVLW      2
	MOVWF      _a+0
;BinProto.c,141 :: 		a = 3;
	MOVLW      3
	MOVWF      _a+0
;BinProto.c,142 :: 		a = 4;
	MOVLW      4
	MOVWF      _a+0
;BinProto.c,143 :: 		a = 5;
	MOVLW      5
	MOVWF      _a+0
;BinProto.c,144 :: 		a = 6;
	MOVLW      6
	MOVWF      _a+0
;BinProto.c,145 :: 		a = 7;
	MOVLW      7
	MOVWF      _a+0
;BinProto.c,146 :: 		a = 8;
	MOVLW      8
	MOVWF      _a+0
;BinProto.c,147 :: 		a = 9;
	MOVLW      9
	MOVWF      _a+0
;BinProto.c,148 :: 		a = 10;
	MOVLW      10
	MOVWF      _a+0
;BinProto.c,149 :: 		a = 11;
	MOVLW      11
	MOVWF      _a+0
;BinProto.c,150 :: 		a = 12;
	MOVLW      12
	MOVWF      _a+0
;BinProto.c,151 :: 		a = 13;
	MOVLW      13
	MOVWF      _a+0
;BinProto.c,152 :: 		a = 14;
	MOVLW      14
	MOVWF      _a+0
;BinProto.c,153 :: 		a = 15;
	MOVLW      15
	MOVWF      _a+0
;BinProto.c,154 :: 		a = 16;
	MOVLW      16
	MOVWF      _a+0
;BinProto.c,155 :: 		a = 17;
	MOVLW      17
	MOVWF      _a+0
;BinProto.c,156 :: 		a = 18;
	MOVLW      18
	MOVWF      _a+0
;BinProto.c,157 :: 		a = 19;
	MOVLW      19
	MOVWF      _a+0
;BinProto.c,158 :: 		a = 20;
	MOVLW      20
	MOVWF      _a+0
;BinProto.c,159 :: 		a = 21;
	MOVLW      21
	MOVWF      _a+0
;BinProto.c,160 :: 		a = 22;
	MOVLW      22
	MOVWF      _a+0
;BinProto.c,161 :: 		a = 23;
	MOVLW      23
	MOVWF      _a+0
;BinProto.c,162 :: 		a = 24;
	MOVLW      24
	MOVWF      _a+0
;BinProto.c,163 :: 		a = 25;
	MOVLW      25
	MOVWF      _a+0
;BinProto.c,164 :: 		a = 26;
	MOVLW      26
	MOVWF      _a+0
;BinProto.c,165 :: 		a = 27;
	MOVLW      27
	MOVWF      _a+0
;BinProto.c,166 :: 		a = 28;
	MOVLW      28
	MOVWF      _a+0
;BinProto.c,167 :: 		a = 29;
	MOVLW      29
	MOVWF      _a+0
;BinProto.c,168 :: 		a = 30;
	MOVLW      30
	MOVWF      _a+0
;BinProto.c,169 :: 		a = 31;
	MOVLW      31
	MOVWF      _a+0
;BinProto.c,170 :: 		a = 32;
	MOVLW      32
	MOVWF      _a+0
;BinProto.c,171 :: 		a = 33;
	MOVLW      33
	MOVWF      _a+0
;BinProto.c,172 :: 		a = 34;
	MOVLW      34
	MOVWF      _a+0
;BinProto.c,173 :: 		a = 35;
	MOVLW      35
	MOVWF      _a+0
;BinProto.c,174 :: 		a = 36;
	MOVLW      36
	MOVWF      _a+0
;BinProto.c,175 :: 		a = 37;
	MOVLW      37
	MOVWF      _a+0
;BinProto.c,176 :: 		a = 38;
	MOVLW      38
	MOVWF      _a+0
;BinProto.c,177 :: 		a = 39;
	MOVLW      39
	MOVWF      _a+0
;BinProto.c,178 :: 		a = 40;
	MOVLW      40
	MOVWF      _a+0
;BinProto.c,179 :: 		a = 41;
	MOVLW      41
	MOVWF      _a+0
;BinProto.c,180 :: 		a = 42;
	MOVLW      42
	MOVWF      _a+0
;BinProto.c,181 :: 		a = 43;
	MOVLW      43
	MOVWF      _a+0
;BinProto.c,182 :: 		a = 44;
	MOVLW      44
	MOVWF      _a+0
;BinProto.c,183 :: 		a = 45;
	MOVLW      45
	MOVWF      _a+0
;BinProto.c,184 :: 		a = 46;
	MOVLW      46
	MOVWF      _a+0
;BinProto.c,185 :: 		a = 47;
	MOVLW      47
	MOVWF      _a+0
;BinProto.c,186 :: 		a = 48;
	MOVLW      48
	MOVWF      _a+0
;BinProto.c,187 :: 		a = 49;
	MOVLW      49
	MOVWF      _a+0
;BinProto.c,188 :: 		a = 50;
	MOVLW      50
	MOVWF      _a+0
;BinProto.c,189 :: 		a = 51;
	MOVLW      51
	MOVWF      _a+0
;BinProto.c,190 :: 		a = 52;
	MOVLW      52
	MOVWF      _a+0
;BinProto.c,191 :: 		a = 53;
	MOVLW      53
	MOVWF      _a+0
;BinProto.c,192 :: 		a = 54;
	MOVLW      54
	MOVWF      _a+0
;BinProto.c,193 :: 		a = 55;
	MOVLW      55
	MOVWF      _a+0
;BinProto.c,194 :: 		a = 56;
	MOVLW      56
	MOVWF      _a+0
;BinProto.c,195 :: 		a = 57;
	MOVLW      57
	MOVWF      _a+0
;BinProto.c,196 :: 		a = 58;
	MOVLW      58
	MOVWF      _a+0
;BinProto.c,197 :: 		a = 59;
	MOVLW      59
	MOVWF      _a+0
;BinProto.c,198 :: 		a = 60;
	MOVLW      60
	MOVWF      _a+0
;BinProto.c,199 :: 		a = 61;
	MOVLW      61
	MOVWF      _a+0
;BinProto.c,200 :: 		a = 62;
	MOVLW      62
	MOVWF      _a+0
;BinProto.c,201 :: 		a = 63;
	MOVLW      63
	MOVWF      _a+0
;BinProto.c,202 :: 		a = 64;
	MOVLW      64
	MOVWF      _a+0
;BinProto.c,203 :: 		a = 65;
	MOVLW      65
	MOVWF      _a+0
;BinProto.c,204 :: 		a = 66;
	MOVLW      66
	MOVWF      _a+0
;BinProto.c,205 :: 		a = 67;
	MOVLW      67
	MOVWF      _a+0
;BinProto.c,206 :: 		a = 68;
	MOVLW      68
	MOVWF      _a+0
;BinProto.c,207 :: 		a = 69;
	MOVLW      69
	MOVWF      _a+0
;BinProto.c,208 :: 		a = 70;
	MOVLW      70
	MOVWF      _a+0
;BinProto.c,209 :: 		a = 71;
	MOVLW      71
	MOVWF      _a+0
;BinProto.c,210 :: 		a = 72;
	MOVLW      72
	MOVWF      _a+0
;BinProto.c,211 :: 		a = 73;
	MOVLW      73
	MOVWF      _a+0
;BinProto.c,212 :: 		a = 74;
	MOVLW      74
	MOVWF      _a+0
;BinProto.c,213 :: 		a = 75;
	MOVLW      75
	MOVWF      _a+0
;BinProto.c,214 :: 		a = 76;
	MOVLW      76
	MOVWF      _a+0
;BinProto.c,215 :: 		a = 77;
	MOVLW      77
	MOVWF      _a+0
;BinProto.c,216 :: 		a = 78;
	MOVLW      78
	MOVWF      _a+0
;BinProto.c,217 :: 		a = 79;
	MOVLW      79
	MOVWF      _a+0
;BinProto.c,218 :: 		a = 80;
	MOVLW      80
	MOVWF      _a+0
;BinProto.c,219 :: 		a = 81;
	MOVLW      81
	MOVWF      _a+0
;BinProto.c,220 :: 		a = 82;
	MOVLW      82
	MOVWF      _a+0
;BinProto.c,221 :: 		a = 83;
	MOVLW      83
	MOVWF      _a+0
;BinProto.c,222 :: 		a = 84;
	MOVLW      84
	MOVWF      _a+0
;BinProto.c,223 :: 		a = 85;
	MOVLW      85
	MOVWF      _a+0
;BinProto.c,224 :: 		a = 86;
	MOVLW      86
	MOVWF      _a+0
;BinProto.c,225 :: 		a = 87;
	MOVLW      87
	MOVWF      _a+0
;BinProto.c,226 :: 		a = 88;
	MOVLW      88
	MOVWF      _a+0
;BinProto.c,227 :: 		a = 89;
	MOVLW      89
	MOVWF      _a+0
;BinProto.c,228 :: 		a = 90;
	MOVLW      90
	MOVWF      _a+0
;BinProto.c,229 :: 		a = 91;
	MOVLW      91
	MOVWF      _a+0
;BinProto.c,230 :: 		a = 92;
	MOVLW      92
	MOVWF      _a+0
;BinProto.c,231 :: 		a = 93;
	MOVLW      93
	MOVWF      _a+0
;BinProto.c,232 :: 		a = 94;
	MOVLW      94
	MOVWF      _a+0
;BinProto.c,233 :: 		a = 95;
	MOVLW      95
	MOVWF      _a+0
;BinProto.c,234 :: 		a = 96;
	MOVLW      96
	MOVWF      _a+0
;BinProto.c,235 :: 		a = 97;
	MOVLW      97
	MOVWF      _a+0
;BinProto.c,236 :: 		a = 98;
	MOVLW      98
	MOVWF      _a+0
;BinProto.c,237 :: 		a = 99;
	MOVLW      99
	MOVWF      _a+0
;BinProto.c,238 :: 		a = 0;
	CLRF       _a+0
;BinProto.c,239 :: 		a = 1;
	MOVLW      1
	MOVWF      _a+0
;BinProto.c,240 :: 		a = 2;
	MOVLW      2
	MOVWF      _a+0
;BinProto.c,241 :: 		a = 3;
	MOVLW      3
	MOVWF      _a+0
;BinProto.c,242 :: 		a = 4;
	MOVLW      4
	MOVWF      _a+0
;BinProto.c,243 :: 		a = 5;
	MOVLW      5
	MOVWF      _a+0
;BinProto.c,244 :: 		a = 6;
	MOVLW      6
	MOVWF      _a+0
;BinProto.c,245 :: 		a = 7;
	MOVLW      7
	MOVWF      _a+0
;BinProto.c,246 :: 		a = 8;
	MOVLW      8
	MOVWF      _a+0
;BinProto.c,247 :: 		a = 9;
	MOVLW      9
	MOVWF      _a+0
;BinProto.c,248 :: 		a = 10;
	MOVLW      10
	MOVWF      _a+0
;BinProto.c,249 :: 		a = 11;
	MOVLW      11
	MOVWF      _a+0
;BinProto.c,250 :: 		a = 12;
	MOVLW      12
	MOVWF      _a+0
;BinProto.c,251 :: 		a = 13;
	MOVLW      13
	MOVWF      _a+0
;BinProto.c,252 :: 		a = 14;
	MOVLW      14
	MOVWF      _a+0
;BinProto.c,253 :: 		a = 15;
	MOVLW      15
	MOVWF      _a+0
;BinProto.c,254 :: 		a = 16;
	MOVLW      16
	MOVWF      _a+0
;BinProto.c,255 :: 		a = 17;
	MOVLW      17
	MOVWF      _a+0
;BinProto.c,256 :: 		a = 18;
	MOVLW      18
	MOVWF      _a+0
;BinProto.c,257 :: 		a = 19;
	MOVLW      19
	MOVWF      _a+0
;BinProto.c,258 :: 		a = 20;
	MOVLW      20
	MOVWF      _a+0
;BinProto.c,259 :: 		a = 21;
	MOVLW      21
	MOVWF      _a+0
;BinProto.c,260 :: 		a = 22;
	MOVLW      22
	MOVWF      _a+0
;BinProto.c,261 :: 		a = 23;
	MOVLW      23
	MOVWF      _a+0
;BinProto.c,262 :: 		a = 24;
	MOVLW      24
	MOVWF      _a+0
;BinProto.c,263 :: 		a = 25;
	MOVLW      25
	MOVWF      _a+0
;BinProto.c,264 :: 		a = 26;
	MOVLW      26
	MOVWF      _a+0
;BinProto.c,265 :: 		a = 27;
	MOVLW      27
	MOVWF      _a+0
;BinProto.c,266 :: 		a = 28;
	MOVLW      28
	MOVWF      _a+0
;BinProto.c,267 :: 		a = 29;
	MOVLW      29
	MOVWF      _a+0
;BinProto.c,268 :: 		a = 30;
	MOVLW      30
	MOVWF      _a+0
;BinProto.c,269 :: 		a = 31;
	MOVLW      31
	MOVWF      _a+0
;BinProto.c,270 :: 		a = 32;
	MOVLW      32
	MOVWF      _a+0
;BinProto.c,271 :: 		a = 33;
	MOVLW      33
	MOVWF      _a+0
;BinProto.c,272 :: 		a = 34;
	MOVLW      34
	MOVWF      _a+0
;BinProto.c,273 :: 		a = 35;
	MOVLW      35
	MOVWF      _a+0
;BinProto.c,274 :: 		a = 36;
	MOVLW      36
	MOVWF      _a+0
;BinProto.c,275 :: 		a = 37;
	MOVLW      37
	MOVWF      _a+0
;BinProto.c,276 :: 		a = 38;
	MOVLW      38
	MOVWF      _a+0
;BinProto.c,277 :: 		a = 39;
	MOVLW      39
	MOVWF      _a+0
;BinProto.c,278 :: 		a = 40;
	MOVLW      40
	MOVWF      _a+0
;BinProto.c,279 :: 		a = 41;
	MOVLW      41
	MOVWF      _a+0
;BinProto.c,280 :: 		a = 42;
	MOVLW      42
	MOVWF      _a+0
;BinProto.c,281 :: 		a = 43;
	MOVLW      43
	MOVWF      _a+0
;BinProto.c,282 :: 		a = 44;
	MOVLW      44
	MOVWF      _a+0
;BinProto.c,283 :: 		a = 45;
	MOVLW      45
	MOVWF      _a+0
;BinProto.c,284 :: 		a = 46;
	MOVLW      46
	MOVWF      _a+0
;BinProto.c,285 :: 		a = 47;
	MOVLW      47
	MOVWF      _a+0
;BinProto.c,286 :: 		a = 48;
	MOVLW      48
	MOVWF      _a+0
;BinProto.c,287 :: 		a = 49;
	MOVLW      49
	MOVWF      _a+0
;BinProto.c,288 :: 		a = 50;
	MOVLW      50
	MOVWF      _a+0
;BinProto.c,289 :: 		a = 51;
	MOVLW      51
	MOVWF      _a+0
;BinProto.c,290 :: 		a = 52;
	MOVLW      52
	MOVWF      _a+0
;BinProto.c,291 :: 		a = 53;
	MOVLW      53
	MOVWF      _a+0
;BinProto.c,292 :: 		a = 54;
	MOVLW      54
	MOVWF      _a+0
;BinProto.c,293 :: 		a = 55;
	MOVLW      55
	MOVWF      _a+0
;BinProto.c,294 :: 		a = 56;
	MOVLW      56
	MOVWF      _a+0
;BinProto.c,295 :: 		a = 57;
	MOVLW      57
	MOVWF      _a+0
;BinProto.c,296 :: 		a = 58;
	MOVLW      58
	MOVWF      _a+0
;BinProto.c,297 :: 		a = 59;
	MOVLW      59
	MOVWF      _a+0
;BinProto.c,298 :: 		a = 60;
	MOVLW      60
	MOVWF      _a+0
;BinProto.c,299 :: 		a = 61;
	MOVLW      61
	MOVWF      _a+0
;BinProto.c,300 :: 		a = 62;
	MOVLW      62
	MOVWF      _a+0
;BinProto.c,301 :: 		a = 63;
	MOVLW      63
	MOVWF      _a+0
;BinProto.c,302 :: 		a = 64;
	MOVLW      64
	MOVWF      _a+0
;BinProto.c,303 :: 		a = 65;
	MOVLW      65
	MOVWF      _a+0
;BinProto.c,304 :: 		a = 66;
	MOVLW      66
	MOVWF      _a+0
;BinProto.c,305 :: 		a = 67;
	MOVLW      67
	MOVWF      _a+0
;BinProto.c,306 :: 		a = 68;
	MOVLW      68
	MOVWF      _a+0
;BinProto.c,307 :: 		a = 69;
	MOVLW      69
	MOVWF      _a+0
;BinProto.c,308 :: 		a = 70;
	MOVLW      70
	MOVWF      _a+0
;BinProto.c,309 :: 		a = 71;
	MOVLW      71
	MOVWF      _a+0
;BinProto.c,310 :: 		a = 72;
	MOVLW      72
	MOVWF      _a+0
;BinProto.c,311 :: 		a = 73;
	MOVLW      73
	MOVWF      _a+0
;BinProto.c,312 :: 		a = 74;
	MOVLW      74
	MOVWF      _a+0
;BinProto.c,313 :: 		a = 75;
	MOVLW      75
	MOVWF      _a+0
;BinProto.c,314 :: 		a = 76;
	MOVLW      76
	MOVWF      _a+0
;BinProto.c,315 :: 		a = 77;
	MOVLW      77
	MOVWF      _a+0
;BinProto.c,316 :: 		a = 78;
	MOVLW      78
	MOVWF      _a+0
;BinProto.c,317 :: 		a = 79;
	MOVLW      79
	MOVWF      _a+0
;BinProto.c,318 :: 		a = 80;
	MOVLW      80
	MOVWF      _a+0
;BinProto.c,319 :: 		a = 81;
	MOVLW      81
	MOVWF      _a+0
;BinProto.c,320 :: 		a = 82;
	MOVLW      82
	MOVWF      _a+0
;BinProto.c,321 :: 		a = 83;
	MOVLW      83
	MOVWF      _a+0
;BinProto.c,322 :: 		a = 84;
	MOVLW      84
	MOVWF      _a+0
;BinProto.c,323 :: 		a = 85;
	MOVLW      85
	MOVWF      _a+0
;BinProto.c,324 :: 		a = 86;
	MOVLW      86
	MOVWF      _a+0
;BinProto.c,325 :: 		a = 87;
	MOVLW      87
	MOVWF      _a+0
;BinProto.c,326 :: 		a = 88;
	MOVLW      88
	MOVWF      _a+0
;BinProto.c,327 :: 		a = 89;
	MOVLW      89
	MOVWF      _a+0
;BinProto.c,328 :: 		a = 90;
	MOVLW      90
	MOVWF      _a+0
;BinProto.c,329 :: 		a = 91;
	MOVLW      91
	MOVWF      _a+0
;BinProto.c,330 :: 		a = 92;
	MOVLW      92
	MOVWF      _a+0
;BinProto.c,331 :: 		a = 93;
	MOVLW      93
	MOVWF      _a+0
;BinProto.c,332 :: 		a = 94;
	MOVLW      94
	MOVWF      _a+0
;BinProto.c,333 :: 		a = 95;
	MOVLW      95
	MOVWF      _a+0
;BinProto.c,334 :: 		a = 96;
	MOVLW      96
	MOVWF      _a+0
;BinProto.c,335 :: 		a = 97;
	MOVLW      97
	MOVWF      _a+0
;BinProto.c,336 :: 		a = 98;
	MOVLW      98
	MOVWF      _a+0
;BinProto.c,337 :: 		a = 99;
	MOVLW      99
	MOVWF      _a+0
;BinProto.c,338 :: 		a = 0;
	CLRF       _a+0
;BinProto.c,339 :: 		a = 1;
	MOVLW      1
	MOVWF      _a+0
;BinProto.c,340 :: 		a = 2;
	MOVLW      2
	MOVWF      _a+0
;BinProto.c,341 :: 		a = 3;
	MOVLW      3
	MOVWF      _a+0
;BinProto.c,342 :: 		a = 4;
	MOVLW      4
	MOVWF      _a+0
;BinProto.c,343 :: 		a = 5;
	MOVLW      5
	MOVWF      _a+0
;BinProto.c,344 :: 		a = 6;
	MOVLW      6
	MOVWF      _a+0
;BinProto.c,345 :: 		a = 7;
	MOVLW      7
	MOVWF      _a+0
;BinProto.c,346 :: 		a = 8;
	MOVLW      8
	MOVWF      _a+0
;BinProto.c,347 :: 		a = 9;
	MOVLW      9
	MOVWF      _a+0
;BinProto.c,348 :: 		a = 10;
	MOVLW      10
	MOVWF      _a+0
;BinProto.c,349 :: 		a = 11;
	MOVLW      11
	MOVWF      _a+0
;BinProto.c,350 :: 		a = 12;
	MOVLW      12
	MOVWF      _a+0
;BinProto.c,351 :: 		a = 13;
	MOVLW      13
	MOVWF      _a+0
;BinProto.c,352 :: 		a = 14;
	MOVLW      14
	MOVWF      _a+0
;BinProto.c,353 :: 		a = 15;
	MOVLW      15
	MOVWF      _a+0
;BinProto.c,354 :: 		a = 16;
	MOVLW      16
	MOVWF      _a+0
;BinProto.c,355 :: 		a = 17;
	MOVLW      17
	MOVWF      _a+0
;BinProto.c,356 :: 		a = 18;
	MOVLW      18
	MOVWF      _a+0
;BinProto.c,357 :: 		a = 19;
	MOVLW      19
	MOVWF      _a+0
;BinProto.c,358 :: 		a = 20;
	MOVLW      20
	MOVWF      _a+0
;BinProto.c,359 :: 		a = 21;
	MOVLW      21
	MOVWF      _a+0
;BinProto.c,360 :: 		a = 22;
	MOVLW      22
	MOVWF      _a+0
;BinProto.c,361 :: 		a = 23;
	MOVLW      23
	MOVWF      _a+0
;BinProto.c,362 :: 		a = 24;
	MOVLW      24
	MOVWF      _a+0
;BinProto.c,363 :: 		a = 25;
	MOVLW      25
	MOVWF      _a+0
;BinProto.c,364 :: 		a = 26;
	MOVLW      26
	MOVWF      _a+0
;BinProto.c,365 :: 		a = 27;
	MOVLW      27
	MOVWF      _a+0
;BinProto.c,366 :: 		a = 28;
	MOVLW      28
	MOVWF      _a+0
;BinProto.c,367 :: 		a = 29;
	MOVLW      29
	MOVWF      _a+0
;BinProto.c,368 :: 		a = 30;
	MOVLW      30
	MOVWF      _a+0
;BinProto.c,369 :: 		a = 31;
	MOVLW      31
	MOVWF      _a+0
;BinProto.c,370 :: 		a = 32;
	MOVLW      32
	MOVWF      _a+0
;BinProto.c,371 :: 		a = 33;
	MOVLW      33
	MOVWF      _a+0
;BinProto.c,372 :: 		a = 34;
	MOVLW      34
	MOVWF      _a+0
;BinProto.c,373 :: 		a = 35;
	MOVLW      35
	MOVWF      _a+0
;BinProto.c,374 :: 		a = 36;
	MOVLW      36
	MOVWF      _a+0
;BinProto.c,375 :: 		a = 37;
	MOVLW      37
	MOVWF      _a+0
;BinProto.c,376 :: 		a = 38;
	MOVLW      38
	MOVWF      _a+0
;BinProto.c,377 :: 		a = 39;
	MOVLW      39
	MOVWF      _a+0
;BinProto.c,378 :: 		a = 40;
	MOVLW      40
	MOVWF      _a+0
;BinProto.c,379 :: 		a = 41;
	MOVLW      41
	MOVWF      _a+0
;BinProto.c,380 :: 		a = 42;
	MOVLW      42
	MOVWF      _a+0
;BinProto.c,381 :: 		a = 43;
	MOVLW      43
	MOVWF      _a+0
;BinProto.c,382 :: 		a = 44;
	MOVLW      44
	MOVWF      _a+0
;BinProto.c,383 :: 		a = 45;
	MOVLW      45
	MOVWF      _a+0
;BinProto.c,384 :: 		a = 46;
	MOVLW      46
	MOVWF      _a+0
;BinProto.c,385 :: 		a = 47;
	MOVLW      47
	MOVWF      _a+0
;BinProto.c,386 :: 		a = 48;
	MOVLW      48
	MOVWF      _a+0
;BinProto.c,387 :: 		a = 49;
	MOVLW      49
	MOVWF      _a+0
;BinProto.c,388 :: 		a = 50;
	MOVLW      50
	MOVWF      _a+0
;BinProto.c,389 :: 		a = 51;
	MOVLW      51
	MOVWF      _a+0
;BinProto.c,390 :: 		a = 52;
	MOVLW      52
	MOVWF      _a+0
;BinProto.c,391 :: 		a = 53;
	MOVLW      53
	MOVWF      _a+0
;BinProto.c,392 :: 		a = 54;
	MOVLW      54
	MOVWF      _a+0
;BinProto.c,393 :: 		a = 55;
	MOVLW      55
	MOVWF      _a+0
;BinProto.c,394 :: 		a = 56;
	MOVLW      56
	MOVWF      _a+0
;BinProto.c,395 :: 		a = 57;
	MOVLW      57
	MOVWF      _a+0
;BinProto.c,396 :: 		a = 58;
	MOVLW      58
	MOVWF      _a+0
;BinProto.c,397 :: 		a = 59;
	MOVLW      59
	MOVWF      _a+0
;BinProto.c,398 :: 		a = 60;
	MOVLW      60
	MOVWF      _a+0
;BinProto.c,399 :: 		a = 61;
	MOVLW      61
	MOVWF      _a+0
;BinProto.c,400 :: 		a = 62;
	MOVLW      62
	MOVWF      _a+0
;BinProto.c,401 :: 		a = 63;
	MOVLW      63
	MOVWF      _a+0
;BinProto.c,402 :: 		a = 64;
	MOVLW      64
	MOVWF      _a+0
;BinProto.c,403 :: 		a = 65;
	MOVLW      65
	MOVWF      _a+0
;BinProto.c,404 :: 		a = 66;
	MOVLW      66
	MOVWF      _a+0
;BinProto.c,405 :: 		a = 67;
	MOVLW      67
	MOVWF      _a+0
;BinProto.c,406 :: 		a = 68;
	MOVLW      68
	MOVWF      _a+0
;BinProto.c,407 :: 		a = 69;
	MOVLW      69
	MOVWF      _a+0
;BinProto.c,408 :: 		a = 70;
	MOVLW      70
	MOVWF      _a+0
;BinProto.c,409 :: 		a = 71;
	MOVLW      71
	MOVWF      _a+0
;BinProto.c,410 :: 		a = 72;
	MOVLW      72
	MOVWF      _a+0
;BinProto.c,411 :: 		a = 73;
	MOVLW      73
	MOVWF      _a+0
;BinProto.c,412 :: 		a = 74;
	MOVLW      74
	MOVWF      _a+0
;BinProto.c,413 :: 		a = 75;
	MOVLW      75
	MOVWF      _a+0
;BinProto.c,414 :: 		a = 76;
	MOVLW      76
	MOVWF      _a+0
;BinProto.c,415 :: 		a = 77;
	MOVLW      77
	MOVWF      _a+0
;BinProto.c,416 :: 		a = 78;
	MOVLW      78
	MOVWF      _a+0
;BinProto.c,417 :: 		a = 79;
	MOVLW      79
	MOVWF      _a+0
;BinProto.c,418 :: 		a = 80;
	MOVLW      80
	MOVWF      _a+0
;BinProto.c,419 :: 		a = 81;
	MOVLW      81
	MOVWF      _a+0
;BinProto.c,420 :: 		a = 82;
	MOVLW      82
	MOVWF      _a+0
;BinProto.c,421 :: 		a = 83;
	MOVLW      83
	MOVWF      _a+0
;BinProto.c,422 :: 		a = 84;
	MOVLW      84
	MOVWF      _a+0
;BinProto.c,423 :: 		a = 85;
	MOVLW      85
	MOVWF      _a+0
;BinProto.c,424 :: 		a = 86;
	MOVLW      86
	MOVWF      _a+0
;BinProto.c,425 :: 		a = 87;
	MOVLW      87
	MOVWF      _a+0
;BinProto.c,426 :: 		a = 88;
	MOVLW      88
	MOVWF      _a+0
;BinProto.c,427 :: 		a = 89;
	MOVLW      89
	MOVWF      _a+0
;BinProto.c,428 :: 		a = 90;
	MOVLW      90
	MOVWF      _a+0
;BinProto.c,429 :: 		a = 91;
	MOVLW      91
	MOVWF      _a+0
;BinProto.c,430 :: 		a = 92;
	MOVLW      92
	MOVWF      _a+0
;BinProto.c,431 :: 		a = 93;
	MOVLW      93
	MOVWF      _a+0
;BinProto.c,432 :: 		a = 94;
	MOVLW      94
	MOVWF      _a+0
;BinProto.c,433 :: 		a = 95;
	MOVLW      95
	MOVWF      _a+0
;BinProto.c,434 :: 		a = 96;
	MOVLW      96
	MOVWF      _a+0
;BinProto.c,435 :: 		a = 97;
	MOVLW      97
	MOVWF      _a+0
;BinProto.c,436 :: 		a = 98;
	MOVLW      98
	MOVWF      _a+0
;BinProto.c,437 :: 		a = 99;a = 0;
	MOVLW      99
	MOVWF      _a+0
	CLRF       _a+0
;BinProto.c,438 :: 		a = 1;
	MOVLW      1
	MOVWF      _a+0
;BinProto.c,439 :: 		a = 2;
	MOVLW      2
	MOVWF      _a+0
;BinProto.c,440 :: 		a = 3;
	MOVLW      3
	MOVWF      _a+0
;BinProto.c,441 :: 		a = 4;
	MOVLW      4
	MOVWF      _a+0
;BinProto.c,442 :: 		a = 5;
	MOVLW      5
	MOVWF      _a+0
;BinProto.c,443 :: 		a = 6;
	MOVLW      6
	MOVWF      _a+0
;BinProto.c,444 :: 		a = 7;
	MOVLW      7
	MOVWF      _a+0
;BinProto.c,445 :: 		a = 8;
	MOVLW      8
	MOVWF      _a+0
;BinProto.c,446 :: 		a = 9;
	MOVLW      9
	MOVWF      _a+0
;BinProto.c,447 :: 		a = 10;
	MOVLW      10
	MOVWF      _a+0
;BinProto.c,448 :: 		a = 11;
	MOVLW      11
	MOVWF      _a+0
;BinProto.c,449 :: 		a = 12;
	MOVLW      12
	MOVWF      _a+0
;BinProto.c,450 :: 		a = 13;
	MOVLW      13
	MOVWF      _a+0
;BinProto.c,451 :: 		a = 14;
	MOVLW      14
	MOVWF      _a+0
;BinProto.c,452 :: 		a = 15;
	MOVLW      15
	MOVWF      _a+0
;BinProto.c,453 :: 		a = 16;
	MOVLW      16
	MOVWF      _a+0
;BinProto.c,454 :: 		a = 17;
	MOVLW      17
	MOVWF      _a+0
;BinProto.c,455 :: 		a = 18;
	MOVLW      18
	MOVWF      _a+0
;BinProto.c,456 :: 		a = 19;
	MOVLW      19
	MOVWF      _a+0
;BinProto.c,457 :: 		a = 20;
	MOVLW      20
	MOVWF      _a+0
;BinProto.c,458 :: 		a = 21;
	MOVLW      21
	MOVWF      _a+0
;BinProto.c,459 :: 		a = 22;
	MOVLW      22
	MOVWF      _a+0
;BinProto.c,460 :: 		a = 23;
	MOVLW      23
	MOVWF      _a+0
;BinProto.c,461 :: 		a = 24;
	MOVLW      24
	MOVWF      _a+0
;BinProto.c,462 :: 		a = 25;
	MOVLW      25
	MOVWF      _a+0
;BinProto.c,463 :: 		a = 26;
	MOVLW      26
	MOVWF      _a+0
;BinProto.c,464 :: 		a = 27;
	MOVLW      27
	MOVWF      _a+0
;BinProto.c,465 :: 		a = 28;
	MOVLW      28
	MOVWF      _a+0
;BinProto.c,466 :: 		a = 29;
	MOVLW      29
	MOVWF      _a+0
;BinProto.c,467 :: 		a = 30;
	MOVLW      30
	MOVWF      _a+0
;BinProto.c,468 :: 		a = 31;
	MOVLW      31
	MOVWF      _a+0
;BinProto.c,469 :: 		a = 32;
	MOVLW      32
	MOVWF      _a+0
;BinProto.c,470 :: 		a = 33;
	MOVLW      33
	MOVWF      _a+0
;BinProto.c,471 :: 		a = 34;
	MOVLW      34
	MOVWF      _a+0
;BinProto.c,472 :: 		a = 35;
	MOVLW      35
	MOVWF      _a+0
;BinProto.c,473 :: 		a = 36;
	MOVLW      36
	MOVWF      _a+0
;BinProto.c,474 :: 		a = 37;
	MOVLW      37
	MOVWF      _a+0
;BinProto.c,475 :: 		a = 38;
	MOVLW      38
	MOVWF      _a+0
;BinProto.c,476 :: 		a = 39;
	MOVLW      39
	MOVWF      _a+0
;BinProto.c,477 :: 		a = 40;
	MOVLW      40
	MOVWF      _a+0
;BinProto.c,478 :: 		a = 41;
	MOVLW      41
	MOVWF      _a+0
;BinProto.c,479 :: 		a = 42;
	MOVLW      42
	MOVWF      _a+0
;BinProto.c,480 :: 		a = 43;
	MOVLW      43
	MOVWF      _a+0
;BinProto.c,481 :: 		a = 44;
	MOVLW      44
	MOVWF      _a+0
;BinProto.c,482 :: 		a = 45;
	MOVLW      45
	MOVWF      _a+0
;BinProto.c,483 :: 		a = 46;
	MOVLW      46
	MOVWF      _a+0
;BinProto.c,484 :: 		a = 47;
	MOVLW      47
	MOVWF      _a+0
;BinProto.c,485 :: 		a = 48;
	MOVLW      48
	MOVWF      _a+0
;BinProto.c,486 :: 		a = 49;
	MOVLW      49
	MOVWF      _a+0
;BinProto.c,487 :: 		a = 50;
	MOVLW      50
	MOVWF      _a+0
;BinProto.c,488 :: 		a = 51;
	MOVLW      51
	MOVWF      _a+0
;BinProto.c,489 :: 		a = 52;
	MOVLW      52
	MOVWF      _a+0
;BinProto.c,490 :: 		a = 53;
	MOVLW      53
	MOVWF      _a+0
;BinProto.c,491 :: 		a = 54;
	MOVLW      54
	MOVWF      _a+0
;BinProto.c,492 :: 		a = 55;
	MOVLW      55
	MOVWF      _a+0
;BinProto.c,493 :: 		a = 56;
	MOVLW      56
	MOVWF      _a+0
;BinProto.c,494 :: 		a = 57;
	MOVLW      57
	MOVWF      _a+0
;BinProto.c,495 :: 		a = 58;
	MOVLW      58
	MOVWF      _a+0
;BinProto.c,496 :: 		a = 59;
	MOVLW      59
	MOVWF      _a+0
;BinProto.c,497 :: 		a = 60;
	MOVLW      60
	MOVWF      _a+0
;BinProto.c,498 :: 		a = 61;
	MOVLW      61
	MOVWF      _a+0
;BinProto.c,499 :: 		a = 62;
	MOVLW      62
	MOVWF      _a+0
;BinProto.c,500 :: 		a = 63;
	MOVLW      63
	MOVWF      _a+0
;BinProto.c,501 :: 		a = 64;
	MOVLW      64
	MOVWF      _a+0
;BinProto.c,502 :: 		a = 65;
	MOVLW      65
	MOVWF      _a+0
;BinProto.c,503 :: 		a = 66;
	MOVLW      66
	MOVWF      _a+0
;BinProto.c,504 :: 		a = 67;
	MOVLW      67
	MOVWF      _a+0
;BinProto.c,505 :: 		a = 68;
	MOVLW      68
	MOVWF      _a+0
;BinProto.c,506 :: 		a = 69;
	MOVLW      69
	MOVWF      _a+0
;BinProto.c,507 :: 		a = 70;
	MOVLW      70
	MOVWF      _a+0
;BinProto.c,508 :: 		a = 71;
	MOVLW      71
	MOVWF      _a+0
;BinProto.c,509 :: 		a = 72;
	MOVLW      72
	MOVWF      _a+0
;BinProto.c,510 :: 		a = 73;
	MOVLW      73
	MOVWF      _a+0
;BinProto.c,511 :: 		a = 74;
	MOVLW      74
	MOVWF      _a+0
;BinProto.c,512 :: 		a = 75;
	MOVLW      75
	MOVWF      _a+0
;BinProto.c,513 :: 		a = 76;
	MOVLW      76
	MOVWF      _a+0
;BinProto.c,514 :: 		a = 77;
	MOVLW      77
	MOVWF      _a+0
;BinProto.c,515 :: 		a = 78;
	MOVLW      78
	MOVWF      _a+0
;BinProto.c,516 :: 		a = 79;
	MOVLW      79
	MOVWF      _a+0
;BinProto.c,517 :: 		a = 80;
	MOVLW      80
	MOVWF      _a+0
;BinProto.c,518 :: 		a = 81;
	MOVLW      81
	MOVWF      _a+0
;BinProto.c,519 :: 		a = 82;
	MOVLW      82
	MOVWF      _a+0
;BinProto.c,520 :: 		a = 83;
	MOVLW      83
	MOVWF      _a+0
;BinProto.c,521 :: 		a = 84;
	MOVLW      84
	MOVWF      _a+0
;BinProto.c,522 :: 		a = 85;
	MOVLW      85
	MOVWF      _a+0
;BinProto.c,523 :: 		a = 86;
	MOVLW      86
	MOVWF      _a+0
;BinProto.c,524 :: 		a = 87;
	MOVLW      87
	MOVWF      _a+0
;BinProto.c,525 :: 		a = 88;
	MOVLW      88
	MOVWF      _a+0
;BinProto.c,526 :: 		a = 89;
	MOVLW      89
	MOVWF      _a+0
;BinProto.c,527 :: 		a = 90;
	MOVLW      90
	MOVWF      _a+0
;BinProto.c,528 :: 		a = 91;
	MOVLW      91
	MOVWF      _a+0
;BinProto.c,529 :: 		a = 92;
	MOVLW      92
	MOVWF      _a+0
;BinProto.c,530 :: 		a = 93;
	MOVLW      93
	MOVWF      _a+0
;BinProto.c,531 :: 		a = 94;
	MOVLW      94
	MOVWF      _a+0
;BinProto.c,532 :: 		a = 95;
	MOVLW      95
	MOVWF      _a+0
;BinProto.c,533 :: 		a = 96;
	MOVLW      96
	MOVWF      _a+0
;BinProto.c,534 :: 		a = 97;
	MOVLW      97
	MOVWF      _a+0
;BinProto.c,535 :: 		a = 98;
	MOVLW      98
	MOVWF      _a+0
;BinProto.c,536 :: 		a = 99;
	MOVLW      99
	MOVWF      _a+0
;BinProto.c,537 :: 		a = 0;
	CLRF       _a+0
;BinProto.c,538 :: 		a = 1;
	MOVLW      1
	MOVWF      _a+0
;BinProto.c,539 :: 		a = 2;
	MOVLW      2
	MOVWF      _a+0
;BinProto.c,540 :: 		a = 3;
	MOVLW      3
	MOVWF      _a+0
;BinProto.c,541 :: 		a = 4;
	MOVLW      4
	MOVWF      _a+0
;BinProto.c,542 :: 		a = 5;
	MOVLW      5
	MOVWF      _a+0
;BinProto.c,543 :: 		a = 6;
	MOVLW      6
	MOVWF      _a+0
;BinProto.c,544 :: 		a = 7;
	MOVLW      7
	MOVWF      _a+0
;BinProto.c,545 :: 		a = 8;
	MOVLW      8
	MOVWF      _a+0
;BinProto.c,546 :: 		a = 9;
	MOVLW      9
	MOVWF      _a+0
;BinProto.c,547 :: 		a = 10;
	MOVLW      10
	MOVWF      _a+0
;BinProto.c,548 :: 		a = 11;
	MOVLW      11
	MOVWF      _a+0
;BinProto.c,549 :: 		a = 12;
	MOVLW      12
	MOVWF      _a+0
;BinProto.c,550 :: 		a = 13;
	MOVLW      13
	MOVWF      _a+0
;BinProto.c,551 :: 		a = 14;
	MOVLW      14
	MOVWF      _a+0
;BinProto.c,552 :: 		a = 15;
	MOVLW      15
	MOVWF      _a+0
;BinProto.c,553 :: 		a = 16;
	MOVLW      16
	MOVWF      _a+0
;BinProto.c,554 :: 		a = 17;
	MOVLW      17
	MOVWF      _a+0
;BinProto.c,555 :: 		a = 18;
	MOVLW      18
	MOVWF      _a+0
;BinProto.c,556 :: 		a = 19;
	MOVLW      19
	MOVWF      _a+0
;BinProto.c,557 :: 		a = 20;
	MOVLW      20
	MOVWF      _a+0
;BinProto.c,558 :: 		a = 21;
	MOVLW      21
	MOVWF      _a+0
;BinProto.c,559 :: 		a = 22;
	MOVLW      22
	MOVWF      _a+0
;BinProto.c,560 :: 		a = 23;
	MOVLW      23
	MOVWF      _a+0
;BinProto.c,561 :: 		a = 24;
	MOVLW      24
	MOVWF      _a+0
;BinProto.c,562 :: 		a = 25;
	MOVLW      25
	MOVWF      _a+0
;BinProto.c,563 :: 		a = 26;
	MOVLW      26
	MOVWF      _a+0
;BinProto.c,564 :: 		a = 27;
	MOVLW      27
	MOVWF      _a+0
;BinProto.c,565 :: 		a = 28;
	MOVLW      28
	MOVWF      _a+0
;BinProto.c,566 :: 		a = 29;
	MOVLW      29
	MOVWF      _a+0
;BinProto.c,567 :: 		a = 30;
	MOVLW      30
	MOVWF      _a+0
;BinProto.c,568 :: 		a = 31;
	MOVLW      31
	MOVWF      _a+0
;BinProto.c,569 :: 		a = 32;
	MOVLW      32
	MOVWF      _a+0
;BinProto.c,570 :: 		a = 33;
	MOVLW      33
	MOVWF      _a+0
;BinProto.c,571 :: 		a = 34;
	MOVLW      34
	MOVWF      _a+0
;BinProto.c,572 :: 		a = 35;
	MOVLW      35
	MOVWF      _a+0
;BinProto.c,573 :: 		a = 36;
	MOVLW      36
	MOVWF      _a+0
;BinProto.c,574 :: 		a = 37;
	MOVLW      37
	MOVWF      _a+0
;BinProto.c,575 :: 		a = 38;
	MOVLW      38
	MOVWF      _a+0
;BinProto.c,576 :: 		a = 39;
	MOVLW      39
	MOVWF      _a+0
;BinProto.c,577 :: 		a = 40;
	MOVLW      40
	MOVWF      _a+0
;BinProto.c,578 :: 		a = 41;
	MOVLW      41
	MOVWF      _a+0
;BinProto.c,579 :: 		a = 42;
	MOVLW      42
	MOVWF      _a+0
;BinProto.c,580 :: 		a = 43;
	MOVLW      43
	MOVWF      _a+0
;BinProto.c,581 :: 		a = 44;
	MOVLW      44
	MOVWF      _a+0
;BinProto.c,582 :: 		a = 45;
	MOVLW      45
	MOVWF      _a+0
;BinProto.c,583 :: 		a = 46;
	MOVLW      46
	MOVWF      _a+0
;BinProto.c,584 :: 		a = 47;
	MOVLW      47
	MOVWF      _a+0
;BinProto.c,585 :: 		a = 48;
	MOVLW      48
	MOVWF      _a+0
;BinProto.c,586 :: 		a = 49;
	MOVLW      49
	MOVWF      _a+0
;BinProto.c,587 :: 		a = 50;
	MOVLW      50
	MOVWF      _a+0
;BinProto.c,588 :: 		a = 51;
	MOVLW      51
	MOVWF      _a+0
;BinProto.c,589 :: 		a = 52;
	MOVLW      52
	MOVWF      _a+0
;BinProto.c,590 :: 		a = 53;
	MOVLW      53
	MOVWF      _a+0
;BinProto.c,591 :: 		a = 54;
	MOVLW      54
	MOVWF      _a+0
;BinProto.c,592 :: 		a = 55;
	MOVLW      55
	MOVWF      _a+0
;BinProto.c,593 :: 		a = 56;
	MOVLW      56
	MOVWF      _a+0
;BinProto.c,594 :: 		a = 57;
	MOVLW      57
	MOVWF      _a+0
;BinProto.c,595 :: 		a = 58;
	MOVLW      58
	MOVWF      _a+0
;BinProto.c,596 :: 		a = 59;
	MOVLW      59
	MOVWF      _a+0
;BinProto.c,597 :: 		a = 60;
	MOVLW      60
	MOVWF      _a+0
;BinProto.c,598 :: 		a = 61;
	MOVLW      61
	MOVWF      _a+0
;BinProto.c,599 :: 		a = 62;
	MOVLW      62
	MOVWF      _a+0
;BinProto.c,600 :: 		a = 63;
	MOVLW      63
	MOVWF      _a+0
;BinProto.c,601 :: 		a = 64;
	MOVLW      64
	MOVWF      _a+0
;BinProto.c,602 :: 		a = 65;
	MOVLW      65
	MOVWF      _a+0
;BinProto.c,603 :: 		a = 66;
	MOVLW      66
	MOVWF      _a+0
;BinProto.c,604 :: 		a = 67;
	MOVLW      67
	MOVWF      _a+0
;BinProto.c,605 :: 		a = 68;
	MOVLW      68
	MOVWF      _a+0
;BinProto.c,606 :: 		a = 69;
	MOVLW      69
	MOVWF      _a+0
;BinProto.c,607 :: 		a = 70;
	MOVLW      70
	MOVWF      _a+0
;BinProto.c,608 :: 		a = 71;
	MOVLW      71
	MOVWF      _a+0
;BinProto.c,609 :: 		a = 72;
	MOVLW      72
	MOVWF      _a+0
;BinProto.c,610 :: 		a = 73;
	MOVLW      73
	MOVWF      _a+0
;BinProto.c,611 :: 		a = 74;
	MOVLW      74
	MOVWF      _a+0
;BinProto.c,612 :: 		a = 75;
	MOVLW      75
	MOVWF      _a+0
;BinProto.c,613 :: 		a = 76;
	MOVLW      76
	MOVWF      _a+0
;BinProto.c,614 :: 		a = 77;
	MOVLW      77
	MOVWF      _a+0
;BinProto.c,615 :: 		a = 78;
	MOVLW      78
	MOVWF      _a+0
;BinProto.c,616 :: 		a = 79;
	MOVLW      79
	MOVWF      _a+0
;BinProto.c,617 :: 		a = 80;
	MOVLW      80
	MOVWF      _a+0
;BinProto.c,618 :: 		a = 81;
	MOVLW      81
	MOVWF      _a+0
;BinProto.c,619 :: 		a = 82;
	MOVLW      82
	MOVWF      _a+0
;BinProto.c,620 :: 		a = 83;
	MOVLW      83
	MOVWF      _a+0
;BinProto.c,621 :: 		a = 84;
	MOVLW      84
	MOVWF      _a+0
;BinProto.c,622 :: 		a = 85;
	MOVLW      85
	MOVWF      _a+0
;BinProto.c,623 :: 		a = 86;
	MOVLW      86
	MOVWF      _a+0
;BinProto.c,624 :: 		a = 87;
	MOVLW      87
	MOVWF      _a+0
;BinProto.c,625 :: 		a = 88;
	MOVLW      88
	MOVWF      _a+0
;BinProto.c,626 :: 		a = 89;
	MOVLW      89
	MOVWF      _a+0
;BinProto.c,627 :: 		a = 90;
	MOVLW      90
	MOVWF      _a+0
;BinProto.c,628 :: 		a = 91;
	MOVLW      91
	MOVWF      _a+0
;BinProto.c,629 :: 		a = 92;
	MOVLW      92
	MOVWF      _a+0
;BinProto.c,630 :: 		a = 93;
	MOVLW      93
	MOVWF      _a+0
;BinProto.c,631 :: 		a = 94;
	MOVLW      94
	MOVWF      _a+0
;BinProto.c,632 :: 		a = 95;
	MOVLW      95
	MOVWF      _a+0
;BinProto.c,633 :: 		a = 96;
	MOVLW      96
	MOVWF      _a+0
;BinProto.c,634 :: 		a = 97;
	MOVLW      97
	MOVWF      _a+0
;BinProto.c,635 :: 		a = 98;
	MOVLW      98
	MOVWF      _a+0
;BinProto.c,636 :: 		a = 99;
	MOVLW      99
	MOVWF      _a+0
;BinProto.c,637 :: 		a = 0;
	CLRF       _a+0
;BinProto.c,638 :: 		a = 1;
	MOVLW      1
	MOVWF      _a+0
;BinProto.c,639 :: 		a = 2;
	MOVLW      2
	MOVWF      _a+0
;BinProto.c,640 :: 		a = 3;
	MOVLW      3
	MOVWF      _a+0
;BinProto.c,641 :: 		a = 4;
	MOVLW      4
	MOVWF      _a+0
;BinProto.c,642 :: 		a = 5;
	MOVLW      5
	MOVWF      _a+0
;BinProto.c,643 :: 		a = 6;
	MOVLW      6
	MOVWF      _a+0
;BinProto.c,644 :: 		a = 7;
	MOVLW      7
	MOVWF      _a+0
;BinProto.c,645 :: 		a = 8;
	MOVLW      8
	MOVWF      _a+0
;BinProto.c,646 :: 		a = 9;
	MOVLW      9
	MOVWF      _a+0
;BinProto.c,647 :: 		a = 10;
	MOVLW      10
	MOVWF      _a+0
;BinProto.c,648 :: 		a = 11;
	MOVLW      11
	MOVWF      _a+0
;BinProto.c,649 :: 		a = 12;
	MOVLW      12
	MOVWF      _a+0
;BinProto.c,650 :: 		a = 13;
	MOVLW      13
	MOVWF      _a+0
;BinProto.c,651 :: 		a = 14;
	MOVLW      14
	MOVWF      _a+0
;BinProto.c,652 :: 		a = 15;
	MOVLW      15
	MOVWF      _a+0
;BinProto.c,653 :: 		a = 16;
	MOVLW      16
	MOVWF      _a+0
;BinProto.c,654 :: 		a = 17;
	MOVLW      17
	MOVWF      _a+0
;BinProto.c,655 :: 		a = 18;
	MOVLW      18
	MOVWF      _a+0
;BinProto.c,656 :: 		a = 19;
	MOVLW      19
	MOVWF      _a+0
;BinProto.c,657 :: 		a = 20;
	MOVLW      20
	MOVWF      _a+0
;BinProto.c,658 :: 		a = 21;
	MOVLW      21
	MOVWF      _a+0
;BinProto.c,659 :: 		a = 22;
	MOVLW      22
	MOVWF      _a+0
;BinProto.c,660 :: 		a = 23;
	MOVLW      23
	MOVWF      _a+0
;BinProto.c,661 :: 		a = 24;
	MOVLW      24
	MOVWF      _a+0
;BinProto.c,662 :: 		a = 25;
	MOVLW      25
	MOVWF      _a+0
;BinProto.c,663 :: 		a = 26;
	MOVLW      26
	MOVWF      _a+0
;BinProto.c,664 :: 		a = 27;
	MOVLW      27
	MOVWF      _a+0
;BinProto.c,665 :: 		a = 28;
	MOVLW      28
	MOVWF      _a+0
;BinProto.c,666 :: 		a = 29;
	MOVLW      29
	MOVWF      _a+0
;BinProto.c,667 :: 		a = 30;
	MOVLW      30
	MOVWF      _a+0
;BinProto.c,668 :: 		a = 31;
	MOVLW      31
	MOVWF      _a+0
;BinProto.c,669 :: 		a = 32;
	MOVLW      32
	MOVWF      _a+0
;BinProto.c,670 :: 		a = 33;
	MOVLW      33
	MOVWF      _a+0
;BinProto.c,671 :: 		a = 34;
	MOVLW      34
	MOVWF      _a+0
;BinProto.c,672 :: 		a = 35;
	MOVLW      35
	MOVWF      _a+0
;BinProto.c,673 :: 		a = 36;
	MOVLW      36
	MOVWF      _a+0
;BinProto.c,674 :: 		a = 37;
	MOVLW      37
	MOVWF      _a+0
;BinProto.c,675 :: 		a = 38;
	MOVLW      38
	MOVWF      _a+0
;BinProto.c,676 :: 		a = 39;
	MOVLW      39
	MOVWF      _a+0
;BinProto.c,677 :: 		a = 40;
	MOVLW      40
	MOVWF      _a+0
;BinProto.c,678 :: 		a = 41;
	MOVLW      41
	MOVWF      _a+0
;BinProto.c,679 :: 		a = 42;
	MOVLW      42
	MOVWF      _a+0
;BinProto.c,680 :: 		a = 43;
	MOVLW      43
	MOVWF      _a+0
;BinProto.c,681 :: 		a = 44;
	MOVLW      44
	MOVWF      _a+0
;BinProto.c,682 :: 		a = 45;
	MOVLW      45
	MOVWF      _a+0
;BinProto.c,683 :: 		a = 46;
	MOVLW      46
	MOVWF      _a+0
;BinProto.c,684 :: 		a = 47;
	MOVLW      47
	MOVWF      _a+0
;BinProto.c,685 :: 		a = 48;
	MOVLW      48
	MOVWF      _a+0
;BinProto.c,686 :: 		a = 49;
	MOVLW      49
	MOVWF      _a+0
;BinProto.c,687 :: 		a = 50;
	MOVLW      50
	MOVWF      _a+0
;BinProto.c,688 :: 		a = 51;
	MOVLW      51
	MOVWF      _a+0
;BinProto.c,689 :: 		a = 52;
	MOVLW      52
	MOVWF      _a+0
;BinProto.c,690 :: 		a = 53;
	MOVLW      53
	MOVWF      _a+0
;BinProto.c,691 :: 		a = 54;
	MOVLW      54
	MOVWF      _a+0
;BinProto.c,692 :: 		a = 55;
	MOVLW      55
	MOVWF      _a+0
;BinProto.c,693 :: 		a = 56;
	MOVLW      56
	MOVWF      _a+0
;BinProto.c,694 :: 		a = 57;
	MOVLW      57
	MOVWF      _a+0
;BinProto.c,695 :: 		a = 58;
	MOVLW      58
	MOVWF      _a+0
;BinProto.c,696 :: 		a = 59;
	MOVLW      59
	MOVWF      _a+0
;BinProto.c,697 :: 		a = 60;
	MOVLW      60
	MOVWF      _a+0
;BinProto.c,698 :: 		a = 61;
	MOVLW      61
	MOVWF      _a+0
;BinProto.c,699 :: 		a = 62;
	MOVLW      62
	MOVWF      _a+0
;BinProto.c,700 :: 		a = 63;
	MOVLW      63
	MOVWF      _a+0
;BinProto.c,701 :: 		a = 64;
	MOVLW      64
	MOVWF      _a+0
;BinProto.c,702 :: 		a = 65;
	MOVLW      65
	MOVWF      _a+0
;BinProto.c,703 :: 		a = 66;
	MOVLW      66
	MOVWF      _a+0
;BinProto.c,704 :: 		a = 67;
	MOVLW      67
	MOVWF      _a+0
;BinProto.c,705 :: 		a = 68;
	MOVLW      68
	MOVWF      _a+0
;BinProto.c,706 :: 		a = 69;
	MOVLW      69
	MOVWF      _a+0
;BinProto.c,707 :: 		a = 70;
	MOVLW      70
	MOVWF      _a+0
;BinProto.c,708 :: 		a = 71;
	MOVLW      71
	MOVWF      _a+0
;BinProto.c,709 :: 		a = 72;
	MOVLW      72
	MOVWF      _a+0
;BinProto.c,710 :: 		a = 73;
	MOVLW      73
	MOVWF      _a+0
;BinProto.c,711 :: 		a = 74;
	MOVLW      74
	MOVWF      _a+0
;BinProto.c,712 :: 		a = 75;
	MOVLW      75
	MOVWF      _a+0
;BinProto.c,713 :: 		a = 76;
	MOVLW      76
	MOVWF      _a+0
;BinProto.c,714 :: 		a = 77;
	MOVLW      77
	MOVWF      _a+0
;BinProto.c,715 :: 		a = 78;
	MOVLW      78
	MOVWF      _a+0
;BinProto.c,716 :: 		a = 79;
	MOVLW      79
	MOVWF      _a+0
;BinProto.c,717 :: 		a = 80;
	MOVLW      80
	MOVWF      _a+0
;BinProto.c,718 :: 		a = 81;
	MOVLW      81
	MOVWF      _a+0
;BinProto.c,719 :: 		a = 82;
	MOVLW      82
	MOVWF      _a+0
;BinProto.c,720 :: 		a = 83;
	MOVLW      83
	MOVWF      _a+0
;BinProto.c,721 :: 		a = 84;
	MOVLW      84
	MOVWF      _a+0
;BinProto.c,722 :: 		a = 85;
	MOVLW      85
	MOVWF      _a+0
;BinProto.c,723 :: 		a = 86;
	MOVLW      86
	MOVWF      _a+0
;BinProto.c,724 :: 		a = 87;
	MOVLW      87
	MOVWF      _a+0
;BinProto.c,725 :: 		a = 88;
	MOVLW      88
	MOVWF      _a+0
;BinProto.c,726 :: 		a = 89;
	MOVLW      89
	MOVWF      _a+0
;BinProto.c,727 :: 		a = 90;
	MOVLW      90
	MOVWF      _a+0
;BinProto.c,728 :: 		a = 91;
	MOVLW      91
	MOVWF      _a+0
;BinProto.c,729 :: 		a = 92;
	MOVLW      92
	MOVWF      _a+0
;BinProto.c,730 :: 		a = 93;
	MOVLW      93
	MOVWF      _a+0
;BinProto.c,731 :: 		a = 94;
	MOVLW      94
	MOVWF      _a+0
;BinProto.c,732 :: 		a = 95;
	MOVLW      95
	MOVWF      _a+0
;BinProto.c,733 :: 		a = 96;
	MOVLW      96
	MOVWF      _a+0
;BinProto.c,734 :: 		a = 97;
	MOVLW      97
	MOVWF      _a+0
;BinProto.c,735 :: 		a = 98;
	MOVLW      98
	MOVWF      _a+0
;BinProto.c,736 :: 		a = 99;
	MOVLW      99
	MOVWF      _a+0
;BinProto.c,737 :: 		return 100;
	MOVLW      100
	MOVWF      R0+0
;BinProto.c,738 :: 		}
L_end_test_func:
	RETURN
; end of _test_func

_clearPack:

;BinProto.c,752 :: 		void clearPack(){
;BinProto.c,753 :: 		pack.sig = 0;
	CLRF       _pack+0
;BinProto.c,754 :: 		pack.plen = 0;
	CLRF       _pack+1
;BinProto.c,755 :: 		pack.cmd = 0;
	CLRF       _pack+2
;BinProto.c,756 :: 		for(i = 0; i < 12; i++)
	CLRF       _i+0
	CLRF       _i+1
L_clearPack0:
	MOVLW      128
	XORWF      _i+1, 0
	MOVWF      R0+0
	MOVLW      128
	SUBWF      R0+0, 0
	BTFSS      STATUS+0, 2
	GOTO       L__clearPack37
	MOVLW      12
	SUBWF      _i+0, 0
L__clearPack37:
	BTFSC      STATUS+0, 0
	GOTO       L_clearPack1
;BinProto.c,757 :: 		pack.dat[i] = 0;
	MOVF       _i+0, 0
	ADDLW      _pack+3
	MOVWF      FSR
	CLRF       INDF+0
;BinProto.c,756 :: 		for(i = 0; i < 12; i++)
	INCF       _i+0, 1
	BTFSC      STATUS+0, 2
	INCF       _i+1, 1
;BinProto.c,757 :: 		pack.dat[i] = 0;
	GOTO       L_clearPack0
L_clearPack1:
;BinProto.c,758 :: 		pack.endSig = 0;
	CLRF       _pack+23
;BinProto.c,759 :: 		}
L_end_clearPack:
	RETURN
; end of _clearPack

_UARTRead:

;BinProto.c,761 :: 		void UARTRead(){
;BinProto.c,762 :: 		stage = S_INIT;
	CLRF       _stage+0
;BinProto.c,763 :: 		cntr = 0;
	CLRF       _cntr+0
;BinProto.c,764 :: 		clearPack();
	CALL       _clearPack+0
;BinProto.c,765 :: 		while(1==1){
L_UARTRead3:
;BinProto.c,766 :: 		if(UART1_Data_Ready()){
	CALL       _UART1_Data_Ready+0
	MOVF       R0+0, 0
	BTFSC      STATUS+0, 2
	GOTO       L_UARTRead5
;BinProto.c,767 :: 		lastchar = UART1_Read();
	CALL       _UART1_Read+0
	MOVF       R0+0, 0
	MOVWF      _lastchar+0
;BinProto.c,768 :: 		if(stage == S_INIT){
	MOVF       _stage+0, 0
	XORLW      0
	BTFSS      STATUS+0, 2
	GOTO       L_UARTRead6
;BinProto.c,769 :: 		pack.sig = lastchar;
	MOVF       _lastchar+0, 0
	MOVWF      _pack+0
;BinProto.c,770 :: 		stage = S_GETLEN;
	MOVLW      1
	MOVWF      _stage+0
;BinProto.c,771 :: 		continue;
	GOTO       L_UARTRead3
;BinProto.c,772 :: 		}
L_UARTRead6:
;BinProto.c,773 :: 		if(stage == S_GETLEN){
	MOVF       _stage+0, 0
	XORLW      1
	BTFSS      STATUS+0, 2
	GOTO       L_UARTRead7
;BinProto.c,775 :: 		pack.plen = lastchar;
	MOVF       _lastchar+0, 0
	MOVWF      _pack+1
;BinProto.c,776 :: 		stage = S_GETCMD;
	MOVLW      2
	MOVWF      _stage+0
;BinProto.c,778 :: 		continue;
	GOTO       L_UARTRead3
;BinProto.c,779 :: 		}
L_UARTRead7:
;BinProto.c,781 :: 		if(stage == S_GETCMD){
	MOVF       _stage+0, 0
	XORLW      2
	BTFSS      STATUS+0, 2
	GOTO       L_UARTRead8
;BinProto.c,782 :: 		pack.cmd = lastchar;
	MOVF       _lastchar+0, 0
	MOVWF      _pack+2
;BinProto.c,784 :: 		stage = S_GETDAT;
	MOVLW      3
	MOVWF      _stage+0
;BinProto.c,785 :: 		continue;
	GOTO       L_UARTRead3
;BinProto.c,786 :: 		}
L_UARTRead8:
;BinProto.c,787 :: 		if(stage == S_GETDAT){
	MOVF       _stage+0, 0
	XORLW      3
	BTFSS      STATUS+0, 2
	GOTO       L_UARTRead9
;BinProto.c,788 :: 		if(pack.plen == 0){
	MOVF       _pack+1, 0
	XORLW      0
	BTFSS      STATUS+0, 2
	GOTO       L_UARTRead10
;BinProto.c,789 :: 		stage = S_CLOSE;
	MOVLW      4
	MOVWF      _stage+0
;BinProto.c,790 :: 		continue;
	GOTO       L_UARTRead3
;BinProto.c,791 :: 		}
L_UARTRead10:
;BinProto.c,792 :: 		if(cntr < (pack.plen-1)){
	MOVLW      1
	SUBWF      _pack+1, 0
	MOVWF      R1+0
	CLRF       R1+1
	BTFSS      STATUS+0, 0
	DECF       R1+1, 1
	MOVLW      128
	MOVWF      R0+0
	MOVLW      128
	XORWF      R1+1, 0
	SUBWF      R0+0, 0
	BTFSS      STATUS+0, 2
	GOTO       L__UARTRead39
	MOVF       R1+0, 0
	SUBWF      _cntr+0, 0
L__UARTRead39:
	BTFSC      STATUS+0, 0
	GOTO       L_UARTRead11
;BinProto.c,793 :: 		pack.dat[cntr] = lastchar;
	MOVF       _cntr+0, 0
	ADDLW      _pack+3
	MOVWF      FSR
	MOVF       _lastchar+0, 0
	MOVWF      INDF+0
;BinProto.c,794 :: 		cntr += 1;
	INCF       _cntr+0, 1
;BinProto.c,795 :: 		}
	GOTO       L_UARTRead12
L_UARTRead11:
;BinProto.c,797 :: 		pack.dat[cntr]=lastchar;
	MOVF       _cntr+0, 0
	ADDLW      _pack+3
	MOVWF      FSR
	MOVF       _lastchar+0, 0
	MOVWF      INDF+0
;BinProto.c,798 :: 		stage = S_CLOSE;
	MOVLW      4
	MOVWF      _stage+0
;BinProto.c,799 :: 		continue;
	GOTO       L_UARTRead3
;BinProto.c,800 :: 		}
L_UARTRead12:
;BinProto.c,801 :: 		}
L_UARTRead9:
;BinProto.c,802 :: 		if(stage == S_CLOSE){
	MOVF       _stage+0, 0
	XORLW      4
	BTFSS      STATUS+0, 2
	GOTO       L_UARTRead13
;BinProto.c,803 :: 		pack.endSig = lastchar;
	MOVF       _lastchar+0, 0
	MOVWF      _pack+23
;BinProto.c,804 :: 		return;
	GOTO       L_end_UARTRead
;BinProto.c,805 :: 		}
L_UARTRead13:
;BinProto.c,806 :: 		}
L_UARTRead5:
;BinProto.c,807 :: 		}
	GOTO       L_UARTRead3
;BinProto.c,808 :: 		}
L_end_UARTRead:
	RETURN
; end of _UARTRead

_Uart_Response:

;BinProto.c,813 :: 		void Uart_Response(char cmd){
;BinProto.c,814 :: 		UART1_Write(0x13);
	MOVLW      19
	MOVWF      FARG_UART1_Write_data_+0
	CALL       _UART1_Write+0
;BinProto.c,815 :: 		UART1_Write(0x0);
	CLRF       FARG_UART1_Write_data_+0
	CALL       _UART1_Write+0
;BinProto.c,816 :: 		UART1_Write(pack.cmd);
	MOVF       _pack+2, 0
	MOVWF      FARG_UART1_Write_data_+0
	CALL       _UART1_Write+0
;BinProto.c,818 :: 		switch(cmd){
	GOTO       L_Uart_Response14
;BinProto.c,819 :: 		case ERROR:
L_Uart_Response16:
;BinProto.c,820 :: 		UART1_Write(ERROR);
	MOVLW      255
	MOVWF      FARG_UART1_Write_data_+0
	CALL       _UART1_Write+0
;BinProto.c,821 :: 		break;
	GOTO       L_Uart_Response15
;BinProto.c,823 :: 		case READ_BLOCK:
L_Uart_Response17:
;BinProto.c,824 :: 		UART1_Write(FlshDat);
	MOVF       _FlshDat+0, 0
	MOVWF      FARG_UART1_Write_data_+0
	CALL       _UART1_Write+0
;BinProto.c,825 :: 		UART1_Write(FlshDat << 8);
	CLRF       FARG_UART1_Write_data_+0
	CALL       _UART1_Write+0
;BinProto.c,826 :: 		break;
	GOTO       L_Uart_Response15
;BinProto.c,828 :: 		case WRITE_BLOCK:
L_Uart_Response18:
;BinProto.c,829 :: 		UART1_Write(0);
	CLRF       FARG_UART1_Write_data_+0
	CALL       _UART1_Write+0
;BinProto.c,830 :: 		break;
	GOTO       L_Uart_Response15
;BinProto.c,832 :: 		case READY:
L_Uart_Response19:
;BinProto.c,833 :: 		UART1_Write(READY);
	MOVLW      127
	MOVWF      FARG_UART1_Write_data_+0
	CALL       _UART1_Write+0
;BinProto.c,834 :: 		break;
	GOTO       L_Uart_Response15
;BinProto.c,835 :: 		}
L_Uart_Response14:
	MOVF       FARG_Uart_Response_cmd+0, 0
	XORLW      255
	BTFSC      STATUS+0, 2
	GOTO       L_Uart_Response16
	MOVF       FARG_Uart_Response_cmd+0, 0
	XORLW      0
	BTFSC      STATUS+0, 2
	GOTO       L_Uart_Response17
	MOVF       FARG_Uart_Response_cmd+0, 0
	XORLW      1
	BTFSC      STATUS+0, 2
	GOTO       L_Uart_Response18
	MOVF       FARG_Uart_Response_cmd+0, 0
	XORLW      127
	BTFSC      STATUS+0, 2
	GOTO       L_Uart_Response19
L_Uart_Response15:
;BinProto.c,836 :: 		UART1_Write(0x37);
	MOVLW      55
	MOVWF      FARG_UART1_Write_data_+0
	CALL       _UART1_Write+0
;BinProto.c,837 :: 		}
L_end_Uart_Response:
	RETURN
; end of _Uart_Response

_ProcessCommand:

;BinProto.c,839 :: 		void ProcessCommand(){
;BinProto.c,840 :: 		if(pack.sig != 0x13){
	MOVF       _pack+0, 0
	XORLW      19
	BTFSC      STATUS+0, 2
	GOTO       L_ProcessCommand20
;BinProto.c,841 :: 		Uart_Response(ERROR);
	MOVLW      255
	MOVWF      FARG_Uart_Response_cmd+0
	CALL       _Uart_Response+0
;BinProto.c,842 :: 		}
L_ProcessCommand20:
;BinProto.c,843 :: 		if(pack.endSig != 0x37){
	MOVF       _pack+23, 0
	XORLW      55
	BTFSC      STATUS+0, 2
	GOTO       L_ProcessCommand21
;BinProto.c,844 :: 		Uart_Response(ERROR);
	MOVLW      255
	MOVWF      FARG_Uart_Response_cmd+0
	CALL       _Uart_Response+0
;BinProto.c,845 :: 		}
L_ProcessCommand21:
;BinProto.c,847 :: 		switch(pack.cmd){
	GOTO       L_ProcessCommand22
;BinProto.c,848 :: 		case READ_BLOCK:
L_ProcessCommand24:
;BinProto.c,849 :: 		if(pack.plen < 2){
	MOVLW      2
	SUBWF      _pack+1, 0
	BTFSC      STATUS+0, 0
	GOTO       L_ProcessCommand25
;BinProto.c,850 :: 		Uart_Response(ERROR);
	MOVLW      255
	MOVWF      FARG_Uart_Response_cmd+0
	CALL       _Uart_Response+0
;BinProto.c,851 :: 		return;
	GOTO       L_end_ProcessCommand
;BinProto.c,852 :: 		}
L_ProcessCommand25:
;BinProto.c,853 :: 		addr = pack.dat[0];
	MOVF       _pack+3, 0
	MOVWF      _addr+0
	CLRF       _addr+1
;BinProto.c,854 :: 		addr = addr &( pack.dat[1] << 1 );
	MOVF       _pack+4, 0
	MOVWF      R0+0
	CLRF       R0+1
	RLF        R0+0, 1
	RLF        R0+1, 1
	BCF        R0+0, 0
	MOVF       R0+0, 0
	ANDWF      _addr+0, 1
	MOVF       R0+1, 0
	ANDWF      _addr+1, 1
;BinProto.c,855 :: 		FlshDat = FLASH_Read(addr);
	MOVF       _addr+0, 0
	MOVWF      FARG_FLASH_Read_address+0
	MOVF       _addr+1, 0
	MOVWF      FARG_FLASH_Read_address+1
	CALL       _FLASH_Read+0
	MOVF       R0+0, 0
	MOVWF      _FlshDat+0
;BinProto.c,856 :: 		Uart_Response(READ_BLOCK);
	CLRF       FARG_Uart_Response_cmd+0
	CALL       _Uart_Response+0
;BinProto.c,857 :: 		break;
	GOTO       L_ProcessCommand23
;BinProto.c,859 :: 		case WRITE_BLOCK:
L_ProcessCommand26:
;BinProto.c,860 :: 		addr ^= addr;
	MOVF       _addr+0, 0
	XORWF      _addr+0, 1
	MOVF       _addr+1, 0
	XORWF      _addr+1, 1
;BinProto.c,861 :: 		addr = pack.dat[0] ;
	MOVF       _pack+3, 0
	MOVWF      _addr+0
	CLRF       _addr+1
;BinProto.c,862 :: 		addr = addr * 0x100;
	MOVF       _addr+0, 0
	MOVWF      R0+0
	MOVF       _addr+1, 0
	MOVWF      R0+1
	MOVLW      0
	MOVWF      R4+0
	MOVLW      1
	MOVWF      R4+1
	CALL       _Mul_16X16_U+0
	MOVF       R0+0, 0
	MOVWF      _addr+0
	MOVF       R0+1, 0
	MOVWF      _addr+1
;BinProto.c,863 :: 		addr = addr + pack.dat[1];
	MOVF       _pack+4, 0
	ADDWF      _addr+0, 1
	BTFSC      STATUS+0, 0
	INCF       _addr+1, 1
;BinProto.c,866 :: 		FLASH_Write( addr, pack.dat + 2 );
	MOVF       _addr+0, 0
	MOVWF      FARG_FLASH_Write_address+0
	MOVF       _addr+1, 0
	MOVWF      FARG_FLASH_Write_address+1
	MOVLW      _pack+5
	MOVWF      FARG_FLASH_Write_data_+0
	CALL       _FLASH_Write+0
;BinProto.c,867 :: 		Uart_Response(WRITE_BLOCK);
	MOVLW      1
	MOVWF      FARG_Uart_Response_cmd+0
	CALL       _Uart_Response+0
;BinProto.c,868 :: 		break;
	GOTO       L_ProcessCommand23
;BinProto.c,870 :: 		case EXECUTE:
L_ProcessCommand27:
;BinProto.c,871 :: 		UART1_Write(0x72);
	MOVLW      114
	MOVWF      FARG_UART1_Write_data_+0
	CALL       _UART1_Write+0
;BinProto.c,872 :: 		Delay_ms(5000);
	MOVLW      127
	MOVWF      R11+0
	MOVLW      212
	MOVWF      R12+0
	MOVLW      49
	MOVWF      R13+0
L_ProcessCommand28:
	DECFSZ     R13+0, 1
	GOTO       L_ProcessCommand28
	DECFSZ     R12+0, 1
	GOTO       L_ProcessCommand28
	DECFSZ     R11+0, 1
	GOTO       L_ProcessCommand28
	NOP
	NOP
;BinProto.c,874 :: 		GOTO 0x2b2;
	GOTO       690
;BinProto.c,876 :: 		test_func();
	CALL       _test_func+0
;BinProto.c,877 :: 		break;
	GOTO       L_ProcessCommand23
;BinProto.c,879 :: 		case SET_RC4_KEY:
L_ProcessCommand29:
;BinProto.c,880 :: 		for(i = 0; i < (pack.plen-1);i++ ){
	CLRF       _i+0
	CLRF       _i+1
L_ProcessCommand30:
	MOVLW      1
	SUBWF      _pack+1, 0
	MOVWF      R1+0
	CLRF       R1+1
	BTFSS      STATUS+0, 0
	DECF       R1+1, 1
	MOVLW      128
	XORWF      _i+1, 0
	MOVWF      R0+0
	MOVLW      128
	XORWF      R1+1, 0
	SUBWF      R0+0, 0
	BTFSS      STATUS+0, 2
	GOTO       L__ProcessCommand42
	MOVF       R1+0, 0
	SUBWF      _i+0, 0
L__ProcessCommand42:
	BTFSC      STATUS+0, 0
	GOTO       L_ProcessCommand31
;BinProto.c,881 :: 		key[i] = pack.dat[i];
	MOVF       _i+0, 0
	ADDLW      _key+0
	MOVWF      R1+0
	MOVF       _i+0, 0
	ADDLW      _pack+3
	MOVWF      FSR
	MOVF       INDF+0, 0
	MOVWF      R0+0
	MOVF       R1+0, 0
	MOVWF      FSR
	MOVF       R0+0, 0
	MOVWF      INDF+0
;BinProto.c,880 :: 		for(i = 0; i < (pack.plen-1);i++ ){
	INCF       _i+0, 1
	BTFSC      STATUS+0, 2
	INCF       _i+1, 1
;BinProto.c,882 :: 		}
	GOTO       L_ProcessCommand30
L_ProcessCommand31:
;BinProto.c,883 :: 		break;
	GOTO       L_ProcessCommand23
;BinProto.c,884 :: 		}
L_ProcessCommand22:
	MOVF       _pack+2, 0
	XORLW      0
	BTFSC      STATUS+0, 2
	GOTO       L_ProcessCommand24
	MOVF       _pack+2, 0
	XORLW      1
	BTFSC      STATUS+0, 2
	GOTO       L_ProcessCommand26
	MOVF       _pack+2, 0
	XORLW      3
	BTFSC      STATUS+0, 2
	GOTO       L_ProcessCommand27
	MOVF       _pack+2, 0
	XORLW      2
	BTFSC      STATUS+0, 2
	GOTO       L_ProcessCommand29
L_ProcessCommand23:
;BinProto.c,885 :: 		}
L_end_ProcessCommand:
	RETURN
; end of _ProcessCommand

_myrand:

;BinProto.c,890 :: 		int myrand(void){
;BinProto.c,891 :: 		next = next * 1103515245 + 12345;
	MOVF       BinProto_next+0, 0
	MOVWF      R0+0
	MOVF       BinProto_next+1, 0
	MOVWF      R0+1
	MOVF       BinProto_next+2, 0
	MOVWF      R0+2
	MOVF       BinProto_next+3, 0
	MOVWF      R0+3
	MOVLW      109
	MOVWF      R4+0
	MOVLW      78
	MOVWF      R4+1
	MOVLW      198
	MOVWF      R4+2
	MOVLW      65
	MOVWF      R4+3
	CALL       _Mul_32x32_U+0
	MOVLW      57
	MOVWF      BinProto_next+0
	MOVLW      48
	MOVWF      BinProto_next+1
	CLRF       BinProto_next+2
	CLRF       BinProto_next+3
	MOVF       R0+0, 0
	ADDWF      BinProto_next+0, 1
	MOVF       R0+1, 0
	BTFSC      STATUS+0, 0
	INCFSZ     R0+1, 0
	ADDWF      BinProto_next+1, 1
	MOVF       R0+2, 0
	BTFSC      STATUS+0, 0
	INCFSZ     R0+2, 0
	ADDWF      BinProto_next+2, 1
	MOVF       R0+3, 0
	BTFSC      STATUS+0, 0
	INCFSZ     R0+3, 0
	ADDWF      BinProto_next+3, 1
;BinProto.c,892 :: 		return( (unsigned)(next/65536) % 32768);
	MOVLW      0
	MOVWF      R4+0
	MOVLW      0
	MOVWF      R4+1
	MOVLW      1
	MOVWF      R4+2
	MOVLW      0
	MOVWF      R4+3
	MOVF       BinProto_next+0, 0
	MOVWF      R0+0
	MOVF       BinProto_next+1, 0
	MOVWF      R0+1
	MOVF       BinProto_next+2, 0
	MOVWF      R0+2
	MOVF       BinProto_next+3, 0
	MOVWF      R0+3
	CALL       _Div_32x32_U+0
	MOVLW      0
	MOVWF      R4+0
	MOVLW      128
	MOVWF      R4+1
	CALL       _Div_16X16_U+0
	MOVF       R8+0, 0
	MOVWF      R0+0
	MOVF       R8+1, 0
	MOVWF      R0+1
;BinProto.c,893 :: 		}
L_end_myrand:
	RETURN
; end of _myrand

_mysrand:

;BinProto.c,895 :: 		void mysrand(unsigned seed){
;BinProto.c,896 :: 		next = seed;
	MOVF       FARG_mysrand_seed+0, 0
	MOVWF      BinProto_next+0
	MOVF       FARG_mysrand_seed+1, 0
	MOVWF      BinProto_next+1
	CLRF       BinProto_next+2
	CLRF       BinProto_next+3
;BinProto.c,897 :: 		}
L_end_mysrand:
	RETURN
; end of _mysrand

_uAA:

;BinProto.c,899 :: 		void uAA(){
;BinProto.c,900 :: 		UART1_Write_Text("    ");
	MOVLW      ?lstr1_BinProto+0
	MOVWF      FARG_UART1_Write_Text_uart_text+0
	CALL       _UART1_Write_Text+0
;BinProto.c,901 :: 		}
L_end_uAA:
	RETURN
; end of _uAA

_main:

;BinProto.c,903 :: 		void main() {
;BinProto.c,904 :: 		test_func();
	CALL       _test_func+0
;BinProto.c,905 :: 		uAA();
	CALL       _uAA+0
;BinProto.c,906 :: 		UART1_Init(9600);
	MOVLW      129
	MOVWF      SPBRG+0
	BSF        TXSTA+0, 2
	CALL       _UART1_Init+0
;BinProto.c,907 :: 		while(1 == 1){
L_main33:
;BinProto.c,908 :: 		UartRead();
	CALL       _UARTRead+0
;BinProto.c,909 :: 		ProcessCommand();
	CALL       _ProcessCommand+0
;BinProto.c,910 :: 		}
	GOTO       L_main33
;BinProto.c,915 :: 		}
L_end_main:
	GOTO       $+0
; end of _main
